; Function Attrs: null_pointer_is_valid sspstrong uwtable
define internal void @dtap_bcc_set_param(ptr noundef %0, ptr noundef %1, ptr noundef %2, i32 noundef %3, i32 noundef %4) #1 {
  %6 = load i32, ptr @hf_gsm_a_spare_bits, align 4
  %7 = shl i32 %3, 3
  %8 = tail call ptr @proto_tree_add_bits_item(ptr noundef %1, i32 noundef %6, ptr noundef %0, i32 noundef %7, i32 noundef 4, i32 noundef 0)
  %9 = icmp sgt i32 %4, 0
  br i1 %9, label %10, label %12

10:                                               ; preds = %5
  %11 = tail call zeroext i16 @elem_v(ptr noundef %0, ptr noundef %1, ptr noundef %2, i32 noundef 1, i32 noundef 94, i32 noundef %3, ptr noundef null)
  %.not = icmp eq i16 %11, 0
  br i1 %.not, label %12, label %15

12:                                               ; preds = %10, %5
  %13 = tail call ptr @get_gsm_a_msg_string(i32 noundef 1, i32 noundef 94)
  %14 = tail call ptr (ptr, ptr, ptr, ptr, i32, i32, ptr, ...) @proto_tree_add_expert_format(ptr noundef %1, ptr noundef %2, ptr noundef nonnull @ei_gsm_a_dtap_missing_mandatory_element, ptr noundef %0, i32 noundef %3, i32 noundef 0, ptr noundef nonnull @.str.1325, ptr noundef %13, ptr noundef nonnull @.str.824)
  br label %15

15:                                               ; preds = %10, %12
  ret void
}